target datalayout = "e-m:e-p270:32:32-p271:32:32-p272:64:64-i64:64-i128:128-f80:128-n8:16:32:64-S128"
target triple = "x86_64-pc-linux-gnu"

%class.CellTypeState = type { i32 }
%class.RetTableEntry = type { i32, ptr, ptr }
%class.GrowableArrayView = type { %class.GrowableArrayBase, ptr }
%class.GrowableArrayBase = type { i32, i32 }
%class.methodHandle = type { ptr, ptr }
%class.BaseBytecodeStream = type <{ [8 x i8], %class.methodHandle, i32, i32, i32, i32, i8, i8, [6 x i8] }>
%class.RetTable = type { ptr }
%class.GenerateOopMap = type { ptr, %class.methodHandle, %class.RetTable, i32, i32, i32, i32, i8, %class.Handle, i8, i8, i8, i32, ptr, ptr, i32, i32, ptr, i32, i32, %class.ResourceBitMap, i8, i8, ptr, ptr, i8, i32, ptr, ptr }
%class.Handle = type { ptr }
%class.ResourceBitMap = type { %class.GrowableBitMap }
%class.GrowableBitMap = type { %class.BitMap }
%class.BitMap = type { ptr, i64 }
%class.BasicBlock = type { i8, i32, i32, i32, i32, ptr, i32, i32 }

@g_assert_poison = external global ptr, align 8
@.str = private unnamed_addr constant [42 x i8] c"src/hotspot/share/oops/generateOopMap.cpp\00", align 1
@.str.24 = private unnamed_addr constant [21 x i8] c"should have found BB\00", align 1
@.str.71 = private unnamed_addr constant [38 x i8] c"ret returns from two jsr subroutines?\00", align 1
@.str.78 = private unnamed_addr constant [62 x i8] c"Illegal class file encountered. Try running with -Xverify:all\00", align 1

; Function Attrs: mustprogress nounwind uwtable
define linkonce_odr hidden noundef nonnull align 4 dereferenceable(4) ptr @_ZN17GrowableArrayViewIiE2atEi(ptr noundef nonnull align 8 dereferenceable(16) %0, i32 noundef %1) #1 comdat align 2 {
  %3 = alloca ptr, align 8
  %4 = alloca i32, align 4
  store ptr %0, ptr %3, align 8
  store i32 %1, ptr %4, align 4
  %5 = load ptr, ptr %3, align 8
  %6 = getelementptr inbounds %class.GrowableArrayView, ptr %5, i32 0, i32 1
  %7 = load ptr, ptr %6, align 8
  %8 = load i32, ptr %4, align 4
  %9 = sext i32 %8 to i64
  %10 = getelementptr inbounds i32, ptr %7, i64 %9
  ret ptr %10
}

; Function Attrs: mustprogress nounwind uwtable
define linkonce_odr hidden noundef i32 @_ZNK17GrowableArrayBase6lengthEv(ptr noundef nonnull align 4 dereferenceable(8) %0) #1 comdat align 2 {
  %2 = alloca ptr, align 8
  store ptr %0, ptr %2, align 8
  %3 = load ptr, ptr %2, align 8
  %4 = getelementptr inbounds %class.GrowableArrayBase, ptr %3, i32 0, i32 0
  %5 = load i32, ptr %4, align 4
  ret i32 %5
}

; Function Attrs: mustprogress nounwind uwtable
define linkonce_odr hidden noundef ptr @_ZNK13RetTableEntry4nextEv(ptr noundef nonnull align 8 dereferenceable(24) %0) #1 comdat align 2 {
  %2 = alloca ptr, align 8
  store ptr %0, ptr %2, align 8
  %3 = load ptr, ptr %2, align 8
  %4 = getelementptr inbounds %class.RetTableEntry, ptr %3, i32 0, i32 2
  %5 = load ptr, ptr %4, align 8
  ret ptr %5
}

; Function Attrs: mustprogress nounwind uwtable
define linkonce_odr hidden noundef i32 @_ZNK13RetTableEntry10target_bciEv(ptr noundef nonnull align 8 dereferenceable(24) %0) #1 comdat align 2 {
  %2 = alloca ptr, align 8
  store ptr %0, ptr %2, align 8
  %3 = load ptr, ptr %2, align 8
  %4 = getelementptr inbounds %class.RetTableEntry, ptr %3, i32 0, i32 0
  %5 = load i32, ptr %4, align 8
  ret i32 %5
}

; Function Attrs: mustprogress nounwind uwtable
define linkonce_odr hidden noundef zeroext i1 @_ZNK13CellTypeState11is_info_topEv(ptr noundef nonnull align 4 dereferenceable(4) %0) #1 comdat align 2 {
  %2 = alloca ptr, align 8
  store ptr %0, ptr %2, align 8
  %3 = load ptr, ptr %2, align 8
  %4 = getelementptr inbounds %class.CellTypeState, ptr %3, i32 0, i32 0
  %5 = load i32, ptr %4, align 4
  %6 = and i32 %5, 134217728
  %7 = icmp ne i32 %6, 0
  ret i1 %7
}

; Function Attrs: mustprogress nounwind uwtable
define linkonce_odr hidden noundef zeroext i1 @_ZNK13CellTypeState10is_addressEv(ptr noundef nonnull align 4 dereferenceable(4) %0) #1 comdat align 2 {
  %2 = alloca ptr, align 8
  store ptr %0, ptr %2, align 8
  %3 = load ptr, ptr %2, align 8
  %4 = getelementptr inbounds %class.CellTypeState, ptr %3, i32 0, i32 0
  %5 = load i32, ptr %4, align 4
  %6 = and i32 %5, -268435456
  %7 = icmp eq i32 %6, 268435456
  ret i1 %7
}

; Function Attrs: mustprogress nounwind uwtable
define linkonce_odr hidden noundef zeroext i1 @_ZNK10BasicBlock8is_aliveEv(ptr noundef nonnull align 8 dereferenceable(40) %0) #1 comdat align 2 {
  %2 = alloca ptr, align 8
  store ptr %0, ptr %2, align 8
  %3 = load ptr, ptr %2, align 8
  %4 = getelementptr inbounds %class.BasicBlock, ptr %3, i32 0, i32 6
  %5 = load i32, ptr %4, align 8
  %6 = icmp ne i32 %5, -2
  ret i1 %6
}

; Function Attrs: mustprogress nounwind uwtable
define hidden noundef ptr @_ZNK14GenerateOopMap26get_basic_block_containingEi(ptr noundef nonnull align 8 dereferenceable(176) %0, i32 noundef %1) #1 align 2 {
  %3 = alloca ptr, align 8
  %4 = alloca ptr, align 8
  %5 = alloca i32, align 4
  %6 = alloca ptr, align 8
  %7 = alloca i32, align 4
  %8 = alloca i32, align 4
  %9 = alloca i32, align 4
  %10 = alloca i32, align 4
  %11 = alloca i32, align 4
  store ptr %0, ptr %4, align 8
  store i32 %1, ptr %5, align 4
  %12 = load ptr, ptr %4, align 8
  %13 = getelementptr inbounds %class.GenerateOopMap, ptr %12, i32 0, i32 17
  %14 = load ptr, ptr %13, align 8
  store ptr %14, ptr %6, align 8
  store i32 0, ptr %7, align 4
  %15 = getelementptr inbounds %class.GenerateOopMap, ptr %12, i32 0, i32 19
  %16 = load i32, ptr %15, align 4
  %17 = sub nsw i32 %16, 1
  store i32 %17, ptr %8, align 4
  br label %18

18:                                               ; preds = %75, %2
  %19 = load i32, ptr %7, align 4
  %20 = load i32, ptr %8, align 4
  %21 = icmp sle i32 %19, %20
  br i1 %21, label %22, label %76

22:                                               ; preds = %18
  %23 = load i32, ptr %7, align 4
  %24 = load i32, ptr %8, align 4
  %25 = add nsw i32 %23, %24
  %26 = sdiv i32 %25, 2
  store i32 %26, ptr %9, align 4
  %27 = load ptr, ptr %6, align 8
  %28 = load i32, ptr %9, align 4
  %29 = sext i32 %28 to i64
  %30 = getelementptr inbounds %class.BasicBlock, ptr %27, i64 %29
  %31 = getelementptr inbounds %class.BasicBlock, ptr %30, i32 0, i32 1
  %32 = load i32, ptr %31, align 4
  store i32 %32, ptr %10, align 4
  %33 = load i32, ptr %9, align 4
  %34 = getelementptr inbounds %class.GenerateOopMap, ptr %12, i32 0, i32 19
  %35 = load i32, ptr %34, align 4
  %36 = sub nsw i32 %35, 1
  %37 = icmp eq i32 %33, %36
  br i1 %37, label %38, label %43

38:                                               ; preds = %22
  %39 = load ptr, ptr %6, align 8
  %40 = load i32, ptr %9, align 4
  %41 = sext i32 %40 to i64
  %42 = getelementptr inbounds %class.BasicBlock, ptr %39, i64 %41
  store ptr %42, ptr %3, align 8
  br label %80

43:                                               ; preds = %22
  %44 = load ptr, ptr %6, align 8
  %45 = load i32, ptr %9, align 4
  %46 = add nsw i32 %45, 1
  %47 = sext i32 %46 to i64
  %48 = getelementptr inbounds %class.BasicBlock, ptr %44, i64 %47
  %49 = getelementptr inbounds %class.BasicBlock, ptr %48, i32 0, i32 1
  %50 = load i32, ptr %49, align 4
  store i32 %50, ptr %11, align 4
  br label %51

51:                                               ; preds = %43
  %52 = load i32, ptr %10, align 4
  %53 = load i32, ptr %5, align 4
  %54 = icmp sle i32 %52, %53
  br i1 %54, label %55, label %64

55:                                               ; preds = %51
  %56 = load i32, ptr %5, align 4
  %57 = load i32, ptr %11, align 4
  %58 = icmp slt i32 %56, %57
  br i1 %58, label %59, label %64

59:                                               ; preds = %55
  %60 = load ptr, ptr %6, align 8
  %61 = load i32, ptr %9, align 4
  %62 = sext i32 %61 to i64
  %63 = getelementptr inbounds %class.BasicBlock, ptr %60, i64 %62
  store ptr %63, ptr %3, align 8
  br label %80

64:                                               ; preds = %55, %51
  %65 = load i32, ptr %10, align 4
  %66 = load i32, ptr %5, align 4
  %67 = icmp slt i32 %65, %66
  br i1 %67, label %68, label %71

68:                                               ; preds = %64
  %69 = load i32, ptr %9, align 4
  %70 = add nsw i32 %69, 1
  store i32 %70, ptr %7, align 4
  br label %74

71:                                               ; preds = %64
  %72 = load i32, ptr %9, align 4
  %73 = sub nsw i32 %72, 1
  store i32 %73, ptr %8, align 4
  br label %74

74:                                               ; preds = %71, %68
  br label %75

75:                                               ; preds = %74
  br label %18, !llvm.loop !19

76:                                               ; preds = %18
  br label %77

77:                                               ; preds = %76
  %78 = load ptr, ptr @g_assert_poison, align 8
  store i8 88, ptr %78, align 1
  call void (i32, ptr, i32, ptr, ...) @_Z12report_fatal11VMErrorTypePKciS1_z(i32 noundef -536870912, ptr noundef @.str, i32 noundef 651, ptr noundef @.str.24) #11
  unreachable

79:                                               ; No predecessors!
  store ptr null, ptr %3, align 8
  br label %80

80:                                               ; preds = %79, %59, %38
  %81 = load ptr, ptr %3, align 8
  ret ptr %81
}

; Function Attrs: mustprogress nounwind uwtable
define linkonce_odr hidden noundef i32 @_ZNK13RetTableEntry4jsrsEi(ptr noundef nonnull align 8 dereferenceable(24) %0, i32 noundef %1) #1 comdat align 2 {
  %3 = alloca ptr, align 8
  %4 = alloca i32, align 4
  store ptr %0, ptr %3, align 8
  store i32 %1, ptr %4, align 4
  %5 = load ptr, ptr %3, align 8
  %6 = getelementptr inbounds %class.RetTableEntry, ptr %5, i32 0, i32 1
  %7 = load ptr, ptr %6, align 8
  %8 = load i32, ptr %4, align 4
  %9 = call noundef nonnull align 4 dereferenceable(4) ptr @_ZN17GrowableArrayViewIiE2atEi(ptr noundef nonnull align 8 dereferenceable(16) %7, i32 noundef %8)
  %10 = load i32, ptr %9, align 4
  ret i32 %10
}

; Function Attrs: mustprogress nounwind uwtable
define linkonce_odr hidden noundef i32 @_ZNK13RetTableEntry8nof_jsrsEv(ptr noundef nonnull align 8 dereferenceable(24) %0) #1 comdat align 2 {
  %2 = alloca ptr, align 8
  store ptr %0, ptr %2, align 8
  %3 = load ptr, ptr %2, align 8
  %4 = getelementptr inbounds %class.RetTableEntry, ptr %3, i32 0, i32 1
  %5 = load ptr, ptr %4, align 8
  %6 = call noundef i32 @_ZNK17GrowableArrayBase6lengthEv(ptr noundef nonnull align 4 dereferenceable(8) %5)
  ret i32 %6
}

; Function Attrs: mustprogress nounwind uwtable
define linkonce_odr hidden noundef i32 @_ZNK18BaseBytecodeStream3bciEv(ptr noundef nonnull align 8 dereferenceable(42) %0) #1 comdat align 2 {
  %2 = alloca ptr, align 8
  store ptr %0, ptr %2, align 8
  %3 = load ptr, ptr %2, align 8
  %4 = getelementptr inbounds %class.BaseBytecodeStream, ptr %3, i32 0, i32 2
  %5 = load i32, ptr %4, align 8
  ret i32 %5
}

; Function Attrs: mustprogress nounwind uwtable
define hidden noundef ptr @_ZN8RetTable20find_jsrs_for_targetEi(ptr noundef nonnull align 8 dereferenceable(8) %0, i32 noundef %1) #1 align 2 {
  %3 = alloca ptr, align 8
  %4 = alloca ptr, align 8
  %5 = alloca i32, align 4
  %6 = alloca ptr, align 8
  store ptr %0, ptr %4, align 8
  store i32 %1, ptr %5, align 4
  %7 = load ptr, ptr %4, align 8
  %8 = getelementptr inbounds %class.RetTable, ptr %7, i32 0, i32 0
  %9 = load ptr, ptr %8, align 8
  store ptr %9, ptr %6, align 8
  br label %10

10:                                               ; preds = %20, %2
  %11 = load ptr, ptr %6, align 8
  %12 = icmp ne ptr %11, null
  br i1 %12, label %13, label %23

13:                                               ; preds = %10
  %14 = load ptr, ptr %6, align 8
  %15 = call noundef i32 @_ZNK13RetTableEntry10target_bciEv(ptr noundef nonnull align 8 dereferenceable(24) %14)
  %16 = load i32, ptr %5, align 4
  %17 = icmp eq i32 %15, %16
  br i1 %17, label %18, label %20

18:                                               ; preds = %13
  %19 = load ptr, ptr %6, align 8
  store ptr %19, ptr %3, align 8
  br label %27

20:                                               ; preds = %13
  %21 = load ptr, ptr %6, align 8
  %22 = call noundef ptr @_ZNK13RetTableEntry4nextEv(ptr noundef nonnull align 8 dereferenceable(24) %21)
  store ptr %22, ptr %6, align 8
  br label %10, !llvm.loop !10

23:                                               ; preds = %10
  br label %24

24:                                               ; preds = %23
  %25 = load ptr, ptr @g_assert_poison, align 8
  store i8 88, ptr %25, align 1
  call void @_Z28report_should_not_reach_herePKci(ptr noundef @.str, i32 noundef 282) #11
  unreachable

26:                                               ; No predecessors!
  store ptr null, ptr %3, align 8
  br label %27

27:                                               ; preds = %26, %18
  %28 = load ptr, ptr %3, align 8
  ret ptr %28
}

; Function Attrs: mustprogress nounwind uwtable
define linkonce_odr hidden noundef i32 @_ZNK13CellTypeState8get_infoEv(ptr noundef nonnull align 4 dereferenceable(4) %0) #1 comdat align 2 {
  %2 = alloca ptr, align 8
  store ptr %0, ptr %2, align 8
  %3 = load ptr, ptr %2, align 8
  %4 = getelementptr inbounds %class.CellTypeState, ptr %3, i32 0, i32 0
  %5 = load i32, ptr %4, align 4
  %6 = and i32 %5, 67108863
  ret i32 %6
}

; Function Attrs: mustprogress nounwind uwtable
define hidden void @_ZN14GenerateOopMap12verify_errorEPKcz(ptr noundef nonnull align 8 dereferenceable(176) %0, ptr noundef %1, ...) #1 align 2 {
  %3 = alloca ptr, align 8
  %4 = alloca ptr, align 8
  store ptr %0, ptr %3, align 8
  store ptr %1, ptr %4, align 8
  %5 = load ptr, ptr %3, align 8
  call void (ptr, ptr, ...) @_ZN14GenerateOopMap12report_errorEPKcz(ptr noundef nonnull align 8 dereferenceable(176) %5, ptr noundef @.str.78)
  ret void
}

; Function Attrs: mustprogress nounwind uwtable
define linkonce_odr hidden noundef zeroext i1 @_ZNK13CellTypeState15is_good_addressEv(ptr noundef nonnull align 4 dereferenceable(4) %0) #1 comdat align 2 {
  %2 = alloca ptr, align 8
  store ptr %0, ptr %2, align 8
  %3 = load ptr, ptr %2, align 8
  %4 = call noundef zeroext i1 @_ZNK13CellTypeState10is_addressEv(ptr noundef nonnull align 4 dereferenceable(4) %3)
  br i1 %4, label %5, label %8

5:                                                ; preds = %1
  %6 = call noundef zeroext i1 @_ZNK13CellTypeState11is_info_topEv(ptr noundef nonnull align 4 dereferenceable(4) %3)
  %7 = xor i1 %6, true
  br label %8

8:                                                ; preds = %5, %1
  %9 = phi i1 [ false, %1 ], [ %7, %5 ]
  ret i1 %9
}

; Function Attrs: mustprogress nounwind uwtable
define linkonce_odr hidden noundef ptr @_ZN14GenerateOopMap4varsEv(ptr noundef nonnull align 8 dereferenceable(176) %0) #1 comdat align 2 {
  %2 = alloca ptr, align 8
  store ptr %0, ptr %2, align 8
  %3 = load ptr, ptr %2, align 8
  %4 = getelementptr inbounds %class.GenerateOopMap, ptr %3, i32 0, i32 13
  %5 = load ptr, ptr %4, align 8
  ret ptr %5
}

; Function Attrs: mustprogress nounwind uwtable
define hidden void @_ZN14GenerateOopMap19ret_jump_targets_doEP14BytecodeStreamPFvPS_iPiEiS3_(ptr noundef nonnull align 8 dereferenceable(176) %0, ptr noundef %1, ptr noundef %2, i32 noundef %3, ptr noundef %4) #1 align 2 {
  %6 = alloca ptr, align 8
  %7 = alloca ptr, align 8
  %8 = alloca ptr, align 8
  %9 = alloca i32, align 4
  %10 = alloca ptr, align 8
  %11 = alloca %class.CellTypeState, align 4
  %12 = alloca i32, align 4
  %13 = alloca ptr, align 8
  %14 = alloca i32, align 4
  %15 = alloca i32, align 4
  %16 = alloca i32, align 4
  %17 = alloca ptr, align 8
  %18 = alloca i8, align 1
  store ptr %0, ptr %6, align 8
  store ptr %1, ptr %7, align 8
  store ptr %2, ptr %8, align 8
  store i32 %3, ptr %9, align 4
  store ptr %4, ptr %10, align 8
  %19 = load ptr, ptr %6, align 8
  %20 = call noundef ptr @_ZN14GenerateOopMap4varsEv(ptr noundef nonnull align 8 dereferenceable(176) %19)
  %21 = load i32, ptr %9, align 4
  %22 = sext i32 %21 to i64
  %23 = getelementptr inbounds %class.CellTypeState, ptr %20, i64 %22
  call void @llvm.memcpy.p0.p0.i64(ptr align 4 %11, ptr align 4 %23, i64 4, i1 false)
  %24 = call noundef zeroext i1 @_ZNK13CellTypeState15is_good_addressEv(ptr noundef nonnull align 4 dereferenceable(4) %11)
  br i1 %24, label %26, label %25

25:                                               ; preds = %5
  call void (ptr, ptr, ...) @_ZN14GenerateOopMap12verify_errorEPKcz(ptr noundef nonnull align 8 dereferenceable(176) %19, ptr noundef @.str.71)
  br label %58

26:                                               ; preds = %5
  %27 = call noundef i32 @_ZNK13CellTypeState8get_infoEv(ptr noundef nonnull align 4 dereferenceable(4) %11)
  store i32 %27, ptr %12, align 4
  %28 = getelementptr inbounds %class.GenerateOopMap, ptr %19, i32 0, i32 2
  %29 = load i32, ptr %12, align 4
  %30 = call noundef ptr @_ZN8RetTable20find_jsrs_for_targetEi(ptr noundef nonnull align 8 dereferenceable(8) %28, i32 noundef %29)
  store ptr %30, ptr %13, align 8
  %31 = load ptr, ptr %7, align 8
  %32 = call noundef i32 @_ZNK18BaseBytecodeStream3bciEv(ptr noundef nonnull align 8 dereferenceable(42) %31)
  store i32 %32, ptr %14, align 4
  store i32 0, ptr %15, align 4
  br label %33

33:                                               ; preds = %55, %26
  %34 = load i32, ptr %15, align 4
  %35 = load ptr, ptr %13, align 8
  %36 = call noundef i32 @_ZNK13RetTableEntry8nof_jsrsEv(ptr noundef nonnull align 8 dereferenceable(24) %35)
  %37 = icmp slt i32 %34, %36
  br i1 %37, label %38, label %58

38:                                               ; preds = %33
  %39 = load ptr, ptr %13, align 8
  %40 = load i32, ptr %15, align 4
  %41 = call noundef i32 @_ZNK13RetTableEntry4jsrsEi(ptr noundef nonnull align 8 dereferenceable(24) %39, i32 noundef %40)
  store i32 %41, ptr %16, align 4
  %42 = load i32, ptr %16, align 4
  %43 = sub nsw i32 %42, 1
  %44 = call noundef ptr @_ZNK14GenerateOopMap26get_basic_block_containingEi(ptr noundef nonnull align 8 dereferenceable(176) %19, i32 noundef %43)
  store ptr %44, ptr %17, align 8
  %45 = load ptr, ptr %17, align 8
  %46 = call noundef zeroext i1 @_ZNK10BasicBlock8is_aliveEv(ptr noundef nonnull align 8 dereferenceable(40) %45)
  %47 = zext i1 %46 to i8
  store i8 %47, ptr %18, align 1
  %48 = load i8, ptr %18, align 1
  %49 = trunc i8 %48 to i1
  br i1 %49, label %50, label %54

50:                                               ; preds = %38
  %51 = load ptr, ptr %8, align 8
  %52 = load i32, ptr %16, align 4
  %53 = load ptr, ptr %10, align 8
  call void %51(ptr noundef %19, i32 noundef %52, ptr noundef %53)
  br label %54

54:                                               ; preds = %50, %38
  br label %55

55:                                               ; preds = %54
  %56 = load i32, ptr %15, align 4
  %57 = add nsw i32 %56, 1
  store i32 %57, ptr %15, align 4
  br label %33, !llvm.loop !36

58:                                               ; preds = %33, %25
  ret void
}