; Function Attrs: mustprogress nounwind uwtable
define hidden void @_ZN14GenerateOopMap19ret_jump_targets_doEP14BytecodeStreamPFvPS_iPiEiS3_(ptr noundef nonnull align 8 dereferenceable(176) %0, ptr nocapture readonly %1, ptr nocapture noundef readonly %2, i32 noundef %3, ptr noundef %4) local_unnamed_addr #0 align 2 {
  %6 = getelementptr inbounds i8, ptr %0, i64 72
  %7 = load ptr, ptr %6, align 8
  %8 = sext i32 %3 to i64
  %9 = getelementptr inbounds %class.CellTypeState, ptr %7, i64 %8
  %10 = load i32, ptr %9, align 4
  %11 = and i32 %10, -134217728
  %12 = icmp eq i32 %11, 268435456
  br i1 %12, label %14, label %13

13:                                               ; preds = %5
  tail call void (ptr, ptr, ...) @_ZN14GenerateOopMap12report_errorEPKcz(ptr noundef nonnull align 8 dereferenceable(176) %0, ptr noundef nonnull @.str.78)
  br label %.loopexit

14:                                               ; preds = %5
  %15 = and i32 %10, 67108863
  %16 = getelementptr inbounds i8, ptr %0, i64 24
  %.07.i = load ptr, ptr %16, align 8
  %.not8.i = icmp eq ptr %.07.i, null
  br i1 %.not8.i, label %._crit_edge.i, label %.lr.ph.i

.lr.ph.i:                                         ; preds = %14, %25
  %.09.i = phi ptr [ %.0.i, %25 ], [ %.07.i, %14 ]
  %17 = load i32, ptr %.09.i, align 8
  %18 = icmp eq i32 %17, %15
  br i1 %18, label %_ZN8RetTable20find_jsrs_for_targetEi.exit.preheader, label %25

_ZN8RetTable20find_jsrs_for_targetEi.exit.preheader: ; preds = %.lr.ph.i
  %19 = getelementptr inbounds i8, ptr %.09.i, i64 8
  %20 = load ptr, ptr %19, align 8
  %21 = load i32, ptr %20, align 4
  %22 = icmp sgt i32 %21, 0
  br i1 %22, label %.lr.ph, label %.loopexit

.lr.ph:                                           ; preds = %_ZN8RetTable20find_jsrs_for_targetEi.exit.preheader
  %23 = getelementptr inbounds i8, ptr %0, i64 96
  %24 = getelementptr inbounds i8, ptr %0, i64 108
  br label %28

25:                                               ; preds = %.lr.ph.i
  %26 = getelementptr inbounds i8, ptr %.09.i, i64 16
  %.0.i = load ptr, ptr %26, align 8
  %.not.i = icmp eq ptr %.0.i, null
  br i1 %.not.i, label %._crit_edge.i, label %.lr.ph.i, !llvm.loop !10

._crit_edge.i:                                    ; preds = %25, %14
  %27 = load ptr, ptr @g_assert_poison, align 8
  store i8 88, ptr %27, align 1
  tail call void @_Z28report_should_not_reach_herePKci(ptr noundef nonnull @.str, i32 noundef 282) #19
  unreachable

28:                                               ; preds = %.lr.ph, %_ZN8RetTable20find_jsrs_for_targetEi.exit
  %29 = phi i32 [ %21, %.lr.ph ], [ %59, %_ZN8RetTable20find_jsrs_for_targetEi.exit ]
  %30 = phi ptr [ %20, %.lr.ph ], [ %60, %_ZN8RetTable20find_jsrs_for_targetEi.exit ]
  %indvars.iv = phi i64 [ 0, %.lr.ph ], [ %indvars.iv.next, %_ZN8RetTable20find_jsrs_for_targetEi.exit ]
  %31 = getelementptr inbounds i8, ptr %30, i64 8
  %32 = load ptr, ptr %31, align 8
  %33 = getelementptr inbounds i32, ptr %32, i64 %indvars.iv
  %34 = load i32, ptr %33, align 4
  %35 = add nsw i32 %34, -1
  %36 = load ptr, ptr %23, align 8
  %37 = load i32, ptr %24, align 4
  %38 = add nsw i32 %37, -1
  %.not28.i = icmp slt i32 %37, 1
  br i1 %.not28.i, label %._crit_edge.i16, label %.lr.ph.i14

.lr.ph.i14:                                       ; preds = %28, %52
  %.02230.i = phi i32 [ %.1.i, %52 ], [ 0, %28 ]
  %.02329.i = phi i32 [ %.124.i, %52 ], [ %38, %28 ]
  %39 = add nuw nsw i32 %.02329.i, %.02230.i
  %40 = lshr i32 %39, 1
  %41 = zext nneg i32 %40 to i64
  %42 = getelementptr inbounds %class.BasicBlock, ptr %36, i64 %41
  %43 = getelementptr inbounds i8, ptr %42, i64 4
  %44 = load i32, ptr %43, align 4
  %45 = icmp eq i32 %40, %38
  br i1 %45, label %_ZNK14GenerateOopMap26get_basic_block_containingEi.exit, label %46

46:                                               ; preds = %.lr.ph.i14
  %47 = add nuw nsw i32 %40, 1
  %.not27.i.not = icmp slt i32 %44, %34
  br i1 %.not27.i.not, label %48, label %52

48:                                               ; preds = %46
  %49 = zext nneg i32 %47 to i64
  %50 = getelementptr inbounds %class.BasicBlock, ptr %36, i64 %49, i32 1
  %51 = load i32, ptr %50, align 4
  %.not = icmp slt i32 %51, %34
  br i1 %.not, label %52, label %_ZNK14GenerateOopMap26get_basic_block_containingEi.exit

52:                                               ; preds = %48, %46
  %53 = icmp slt i32 %44, %35
  %54 = add nsw i32 %40, -1
  %.124.i = select i1 %53, i32 %.02329.i, i32 %54
  %.1.i = select i1 %53, i32 %47, i32 %.02230.i
  %.not.i15 = icmp sgt i32 %.1.i, %.124.i
  br i1 %.not.i15, label %._crit_edge.i16, label %.lr.ph.i14, !llvm.loop !16

._crit_edge.i16:                                  ; preds = %28, %52
  %55 = load ptr, ptr @g_assert_poison, align 8
  store i8 88, ptr %55, align 1
  tail call void (i32, ptr, i32, ptr, ...) @_Z12report_fatal11VMErrorTypePKciS1_z(i32 noundef -536870912, ptr noundef nonnull @.str, i32 noundef 651, ptr noundef nonnull @.str.24) #19
  unreachable

_ZNK14GenerateOopMap26get_basic_block_containingEi.exit: ; preds = %.lr.ph.i14, %48
  %56 = getelementptr inbounds i8, ptr %42, i64 32
  %57 = load i32, ptr %56, align 8
  %.not18 = icmp eq i32 %57, -2
  br i1 %.not18, label %_ZN8RetTable20find_jsrs_for_targetEi.exit, label %58

58:                                               ; preds = %_ZNK14GenerateOopMap26get_basic_block_containingEi.exit
  tail call void %2(ptr noundef nonnull %0, i32 noundef %34, ptr noundef %4) #18
  %.pre = load ptr, ptr %19, align 8
  %.pre27 = load i32, ptr %.pre, align 4
  br label %_ZN8RetTable20find_jsrs_for_targetEi.exit

_ZN8RetTable20find_jsrs_for_targetEi.exit:        ; preds = %_ZNK14GenerateOopMap26get_basic_block_containingEi.exit, %58
  %59 = phi i32 [ %29, %_ZNK14GenerateOopMap26get_basic_block_containingEi.exit ], [ %.pre27, %58 ]
  %60 = phi ptr [ %30, %_ZNK14GenerateOopMap26get_basic_block_containingEi.exit ], [ %.pre, %58 ]
  %indvars.iv.next = add nuw nsw i64 %indvars.iv, 1
  %61 = sext i32 %59 to i64
  %62 = icmp slt i64 %indvars.iv.next, %61
  br i1 %62, label %28, label %.loopexit, !llvm.loop !38

.loopexit:                                        ; preds = %_ZN8RetTable20find_jsrs_for_targetEi.exit, %_ZN8RetTable20find_jsrs_for_targetEi.exit.preheader, %13
  ret void
}